; ModuleID = '4/201.c'
source_filename = "4/201.c"
target datalayout = "e-m:e-p270:32:32-p271:32:32-p272:64:64-i64:64-f80:128-n8:16:32:64-S128"
target triple = "x86_64-pc-linux-gnu"

@.str = private unnamed_addr constant [5 x i8] c"%d%d\00", align 1
@.str.1 = private unnamed_addr constant [3 x i8] c"%d\00", align 1
@.str.2 = private unnamed_addr constant [4 x i8] c"%d\0A\00", align 1

; Function Attrs: noinline nounwind uwtable
define dso_local i32 @main() #0 {
  %1 = alloca i32, align 4
  %2 = alloca i32, align 4
  %3 = alloca i32, align 4
  %4 = alloca i32, align 4
  %5 = alloca i32, align 4
  %6 = alloca [100 x [100 x i32]], align 16
  store i32 0, i32* %1, align 4
  %7 = call i32 (i8*, ...) @__isoc99_scanf(i8* getelementptr inbounds ([5 x i8], [5 x i8]* @.str, i64 0, i64 0), i32* %2, i32* %3)
  store i32 0, i32* %4, align 4
  br label %8

8:                                                ; preds = %29, %0
  %9 = load i32, i32* %4, align 4
  %10 = load i32, i32* %2, align 4
  %11 = icmp slt i32 %9, %10
  br i1 %11, label %12, label %32

12:                                               ; preds = %8
  store i32 0, i32* %5, align 4
  br label %13

13:                                               ; preds = %25, %12
  %14 = load i32, i32* %5, align 4
  %15 = load i32, i32* %3, align 4
  %16 = icmp slt i32 %14, %15
  br i1 %16, label %17, label %28

17:                                               ; preds = %13
  %18 = load i32, i32* %4, align 4
  %19 = sext i32 %18 to i64
  %20 = getelementptr inbounds [100 x [100 x i32]], [100 x [100 x i32]]* %6, i64 0, i64 %19
  %21 = load i32, i32* %5, align 4
  %22 = sext i32 %21 to i64
  %23 = getelementptr inbounds [100 x i32], [100 x i32]* %20, i64 0, i64 %22
  %24 = call i32 (i8*, ...) @__isoc99_scanf(i8* getelementptr inbounds ([3 x i8], [3 x i8]* @.str.1, i64 0, i64 0), i32* %23)
  br label %25

25:                                               ; preds = %17
  %26 = load i32, i32* %5, align 4
  %27 = add nsw i32 %26, 1
  store i32 %27, i32* %5, align 4
  br label %13

28:                                               ; preds = %13
  br label %29

29:                                               ; preds = %28
  %30 = load i32, i32* %4, align 4
  %31 = add nsw i32 %30, 1
  store i32 %31, i32* %4, align 4
  br label %8

32:                                               ; preds = %8
  store i32 0, i32* %4, align 4
  br label %33

33:                                               ; preds = %234, %32
  %34 = load i32, i32* %4, align 4
  %35 = load i32, i32* %2, align 4
  %36 = load i32, i32* %3, align 4
  %37 = add nsw i32 %35, %36
  %38 = sub nsw i32 %37, 1
  %39 = icmp slt i32 %34, %38
  br i1 %39, label %40, label %237

40:                                               ; preds = %33
  %41 = load i32, i32* %4, align 4
  %42 = load i32, i32* %3, align 4
  %43 = icmp slt i32 %41, %42
  br i1 %43, label %44, label %68

44:                                               ; preds = %40
  %45 = load i32, i32* %3, align 4
  %46 = load i32, i32* %2, align 4
  %47 = icmp sle i32 %45, %46
  br i1 %47, label %48, label %68

48:                                               ; preds = %44
  store i32 0, i32* %5, align 4
  br label %49

49:                                               ; preds = %64, %48
  %50 = load i32, i32* %5, align 4
  %51 = load i32, i32* %4, align 4
  %52 = icmp sle i32 %50, %51
  br i1 %52, label %53, label %67

53:                                               ; preds = %49
  %54 = load i32, i32* %5, align 4
  %55 = sext i32 %54 to i64
  %56 = getelementptr inbounds [100 x [100 x i32]], [100 x [100 x i32]]* %6, i64 0, i64 %55
  %57 = load i32, i32* %4, align 4
  %58 = load i32, i32* %5, align 4
  %59 = sub nsw i32 %57, %58
  %60 = sext i32 %59 to i64
  %61 = getelementptr inbounds [100 x i32], [100 x i32]* %56, i64 0, i64 %60
  %62 = load i32, i32* %61, align 4
  %63 = call i32 (i8*, ...) @printf(i8* getelementptr inbounds ([4 x i8], [4 x i8]* @.str.2, i64 0, i64 0), i32 %62)
  br label %64

64:                                               ; preds = %53
  %65 = load i32, i32* %5, align 4
  %66 = add nsw i32 %65, 1
  store i32 %66, i32* %5, align 4
  br label %49

67:                                               ; preds = %49
  br label %233

68:                                               ; preds = %44, %40
  %69 = load i32, i32* %4, align 4
  %70 = load i32, i32* %3, align 4
  %71 = icmp sge i32 %69, %70
  br i1 %71, label %72, label %104

72:                                               ; preds = %68
  %73 = load i32, i32* %3, align 4
  %74 = load i32, i32* %2, align 4
  %75 = icmp sle i32 %73, %74
  br i1 %75, label %76, label %104

76:                                               ; preds = %72
  %77 = load i32, i32* %4, align 4
  %78 = load i32, i32* %2, align 4
  %79 = icmp slt i32 %77, %78
  br i1 %79, label %80, label %104

80:                                               ; preds = %76
  %81 = load i32, i32* %4, align 4
  %82 = load i32, i32* %3, align 4
  %83 = sub nsw i32 %81, %82
  %84 = add nsw i32 %83, 1
  store i32 %84, i32* %5, align 4
  br label %85

85:                                               ; preds = %100, %80
  %86 = load i32, i32* %5, align 4
  %87 = load i32, i32* %4, align 4
  %88 = icmp sle i32 %86, %87
  br i1 %88, label %89, label %103

89:                                               ; preds = %85
  %90 = load i32, i32* %5, align 4
  %91 = sext i32 %90 to i64
  %92 = getelementptr inbounds [100 x [100 x i32]], [100 x [100 x i32]]* %6, i64 0, i64 %91
  %93 = load i32, i32* %4, align 4
  %94 = load i32, i32* %5, align 4
  %95 = sub nsw i32 %93, %94
  %96 = sext i32 %95 to i64
  %97 = getelementptr inbounds [100 x i32], [100 x i32]* %92, i64 0, i64 %96
  %98 = load i32, i32* %97, align 4
  %99 = call i32 (i8*, ...) @printf(i8* getelementptr inbounds ([4 x i8], [4 x i8]* @.str.2, i64 0, i64 0), i32 %98)
  br label %100

100:                                              ; preds = %89
  %101 = load i32, i32* %5, align 4
  %102 = add nsw i32 %101, 1
  store i32 %102, i32* %5, align 4
  br label %85

103:                                              ; preds = %85
  br label %232

104:                                              ; preds = %76, %72, %68
  %105 = load i32, i32* %4, align 4
  %106 = load i32, i32* %2, align 4
  %107 = icmp sge i32 %105, %106
  br i1 %107, label %108, label %136

108:                                              ; preds = %104
  %109 = load i32, i32* %3, align 4
  %110 = load i32, i32* %2, align 4
  %111 = icmp sle i32 %109, %110
  br i1 %111, label %112, label %136

112:                                              ; preds = %108
  %113 = load i32, i32* %4, align 4
  %114 = load i32, i32* %3, align 4
  %115 = sub nsw i32 %113, %114
  %116 = add nsw i32 %115, 1
  store i32 %116, i32* %5, align 4
  br label %117

117:                                              ; preds = %132, %112
  %118 = load i32, i32* %5, align 4
  %119 = load i32, i32* %2, align 4
  %120 = icmp slt i32 %118, %119
  br i1 %120, label %121, label %135

121:                                              ; preds = %117
  %122 = load i32, i32* %5, align 4
  %123 = sext i32 %122 to i64
  %124 = getelementptr inbounds [100 x [100 x i32]], [100 x [100 x i32]]* %6, i64 0, i64 %123
  %125 = load i32, i32* %4, align 4
  %126 = load i32, i32* %5, align 4
  %127 = sub nsw i32 %125, %126
  %128 = sext i32 %127 to i64
  %129 = getelementptr inbounds [100 x i32], [100 x i32]* %124, i64 0, i64 %128
  %130 = load i32, i32* %129, align 4
  %131 = call i32 (i8*, ...) @printf(i8* getelementptr inbounds ([4 x i8], [4 x i8]* @.str.2, i64 0, i64 0), i32 %130)
  br label %132

132:                                              ; preds = %121
  %133 = load i32, i32* %5, align 4
  %134 = add nsw i32 %133, 1
  store i32 %134, i32* %5, align 4
  br label %117

135:                                              ; preds = %117
  br label %231

136:                                              ; preds = %108, %104
  %137 = load i32, i32* %4, align 4
  %138 = load i32, i32* %2, align 4
  %139 = icmp slt i32 %137, %138
  br i1 %139, label %140, label %164

140:                                              ; preds = %136
  %141 = load i32, i32* %3, align 4
  %142 = load i32, i32* %2, align 4
  %143 = icmp sgt i32 %141, %142
  br i1 %143, label %144, label %164

144:                                              ; preds = %140
  store i32 0, i32* %5, align 4
  br label %145

145:                                              ; preds = %160, %144
  %146 = load i32, i32* %5, align 4
  %147 = load i32, i32* %4, align 4
  %148 = icmp sle i32 %146, %147
  br i1 %148, label %149, label %163

149:                                              ; preds = %145
  %150 = load i32, i32* %5, align 4
  %151 = sext i32 %150 to i64
  %152 = getelementptr inbounds [100 x [100 x i32]], [100 x [100 x i32]]* %6, i64 0, i64 %151
  %153 = load i32, i32* %4, align 4
  %154 = load i32, i32* %5, align 4
  %155 = sub nsw i32 %153, %154
  %156 = sext i32 %155 to i64
  %157 = getelementptr inbounds [100 x i32], [100 x i32]* %152, i64 0, i64 %156
  %158 = load i32, i32* %157, align 4
  %159 = call i32 (i8*, ...) @printf(i8* getelementptr inbounds ([4 x i8], [4 x i8]* @.str.2, i64 0, i64 0), i32 %158)
  br label %160

160:                                              ; preds = %149
  %161 = load i32, i32* %5, align 4
  %162 = add nsw i32 %161, 1
  store i32 %162, i32* %5, align 4
  br label %145

163:                                              ; preds = %145
  br label %230

164:                                              ; preds = %140, %136
  %165 = load i32, i32* %4, align 4
  %166 = load i32, i32* %2, align 4
  %167 = icmp sge i32 %165, %166
  br i1 %167, label %168, label %196

168:                                              ; preds = %164
  %169 = load i32, i32* %3, align 4
  %170 = load i32, i32* %2, align 4
  %171 = icmp sgt i32 %169, %170
  br i1 %171, label %172, label %196

172:                                              ; preds = %168
  %173 = load i32, i32* %4, align 4
  %174 = load i32, i32* %3, align 4
  %175 = icmp slt i32 %173, %174
  br i1 %175, label %176, label %196

176:                                              ; preds = %172
  store i32 0, i32* %5, align 4
  br label %177

177:                                              ; preds = %192, %176
  %178 = load i32, i32* %5, align 4
  %179 = load i32, i32* %2, align 4
  %180 = icmp slt i32 %178, %179
  br i1 %180, label %181, label %195

181:                                              ; preds = %177
  %182 = load i32, i32* %5, align 4
  %183 = sext i32 %182 to i64
  %184 = getelementptr inbounds [100 x [100 x i32]], [100 x [100 x i32]]* %6, i64 0, i64 %183
  %185 = load i32, i32* %4, align 4
  %186 = load i32, i32* %5, align 4
  %187 = sub nsw i32 %185, %186
  %188 = sext i32 %187 to i64
  %189 = getelementptr inbounds [100 x i32], [100 x i32]* %184, i64 0, i64 %188
  %190 = load i32, i32* %189, align 4
  %191 = call i32 (i8*, ...) @printf(i8* getelementptr inbounds ([4 x i8], [4 x i8]* @.str.2, i64 0, i64 0), i32 %190)
  br label %192

192:                                              ; preds = %181
  %193 = load i32, i32* %5, align 4
  %194 = add nsw i32 %193, 1
  store i32 %194, i32* %5, align 4
  br label %177

195:                                              ; preds = %177
  br label %229

196:                                              ; preds = %172, %168, %164
  %197 = load i32, i32* %4, align 4
  %198 = load i32, i32* %3, align 4
  %199 = icmp sge i32 %197, %198
  br i1 %199, label %200, label %228

200:                                              ; preds = %196
  %201 = load i32, i32* %3, align 4
  %202 = load i32, i32* %2, align 4
  %203 = icmp sgt i32 %201, %202
  br i1 %203, label %204, label %228

204:                                              ; preds = %200
  %205 = load i32, i32* %4, align 4
  %206 = load i32, i32* %3, align 4
  %207 = sub nsw i32 %205, %206
  %208 = add nsw i32 %207, 1
  store i32 %208, i32* %5, align 4
  br label %209

209:                                              ; preds = %224, %204
  %210 = load i32, i32* %5, align 4
  %211 = load i32, i32* %2, align 4
  %212 = icmp slt i32 %210, %211
  br i1 %212, label %213, label %227

213:                                              ; preds = %209
  %214 = load i32, i32* %5, align 4
  %215 = sext i32 %214 to i64
  %216 = getelementptr inbounds [100 x [100 x i32]], [100 x [100 x i32]]* %6, i64 0, i64 %215
  %217 = load i32, i32* %4, align 4
  %218 = load i32, i32* %5, align 4
  %219 = sub nsw i32 %217, %218
  %220 = sext i32 %219 to i64
  %221 = getelementptr inbounds [100 x i32], [100 x i32]* %216, i64 0, i64 %220
  %222 = load i32, i32* %221, align 4
  %223 = call i32 (i8*, ...) @printf(i8* getelementptr inbounds ([4 x i8], [4 x i8]* @.str.2, i64 0, i64 0), i32 %222)
  br label %224

224:                                              ; preds = %213
  %225 = load i32, i32* %5, align 4
  %226 = add nsw i32 %225, 1
  store i32 %226, i32* %5, align 4
  br label %209

227:                                              ; preds = %209
  br label %228

228:                                              ; preds = %227, %200, %196
  br label %229

229:                                              ; preds = %228, %195
  br label %230

230:                                              ; preds = %229, %163
  br label %231

231:                                              ; preds = %230, %135
  br label %232

232:                                              ; preds = %231, %103
  br label %233

233:                                              ; preds = %232, %67
  br label %234

234:                                              ; preds = %233
  %235 = load i32, i32* %4, align 4
  %236 = add nsw i32 %235, 1
  store i32 %236, i32* %4, align 4
  br label %33

237:                                              ; preds = %33
  ret i32 0
}

declare dso_local i32 @__isoc99_scanf(i8*, ...) #1

declare dso_local i32 @printf(i8*, ...) #1


!llvm.module.flags = !{!0}
!llvm.ident = !{!1}

!0 = !{i32 1, !"wchar_size", i32 4}
!1 = !{!"clang version 10.0.0-4ubuntu1 "}
